target datalayout = "e-m:e-p270:32:32-p271:32:32-p272:64:64-i64:64-i128:128-f80:128-n8:16:32:64-S128"
target triple = "x86_64-pc-linux-gnu"

%struct.jpeg_decompress_struct = type { ptr, ptr, ptr, ptr, i32, i32, ptr, i32, i32, i32, i32, i32, i32, i32, double, i32, i32, i32, i32, i32, i32, i32, i32, i32, i32, i32, i32, i32, i32, i32, i32, i32, i32, ptr, i32, i32, i32, i32, i32, ptr, [4 x ptr], [4 x ptr], [4 x ptr], i32, ptr, i32, i32, [16 x i8], [16 x i8], [16 x i8], i32, i32, i8, i8, i8, i16, i16, i32, i8, i32, ptr, i32, i32, i32, i32, ptr, i32, [4 x ptr], i32, i32, i32, [10 x i32], i32, i32, i32, i32, i32, ptr, ptr, ptr, ptr, ptr, ptr, ptr, ptr, ptr, ptr, ptr }
%struct.jpeg_error_mgr = type { ptr, ptr, ptr, ptr, ptr, i32, %union.anon, i32, i64, ptr, i32, ptr, i32, i32 }
%union.anon = type { [8 x i32], [48 x i8] }
%struct.jpeg_decomp_master = type { ptr, ptr, i32, i32, i32, i32, [10 x i32], [10 x i32], i32, i32, ptr }
%struct.my_decomp_master = type { %struct.jpeg_decomp_master, i32, i32, ptr, ptr }
%struct.jpeg_color_quantizer = type { ptr, ptr, ptr, ptr, ptr }
%struct.jpeg_d_post_controller = type { ptr, ptr, ptr, ptr }
%struct.jpeg_d_main_controller = type { ptr, ptr, ptr, ptr }
%struct.jpeg_inverse_dct = type { ptr, [10 x ptr], [10 x ptr] }
%struct.jpeg_d_coef_controller = type { ptr, ptr, ptr, ptr, ptr, ptr, i32, i32, i32, ptr }
%struct.jpeg_color_deconverter = type { ptr, ptr, ptr, ptr }
%struct.jpeg_upsampler = type { ptr, ptr, ptr, ptr, i32 }
%struct.jpeg_progress_mgr = type { ptr, i64, i64, i32, i32 }
%struct.jpeg_input_controller = type { ptr, ptr, ptr, ptr, i32, i32 }

; Function Attrs: nounwind uwtable
define internal void @prepare_for_output_pass(ptr noundef %0) #0 {
  %2 = alloca ptr, align 8
  %3 = alloca ptr, align 8
  store ptr %0, ptr %2, align 8
  %4 = load ptr, ptr %2, align 8
  %5 = getelementptr inbounds %struct.jpeg_decompress_struct, ptr %4, i32 0, i32 77
  %6 = load ptr, ptr %5, align 8
  store ptr %6, ptr %3, align 8
  %7 = load ptr, ptr %3, align 8
  %8 = getelementptr inbounds %struct.my_decomp_master, ptr %7, i32 0, i32 0
  %9 = getelementptr inbounds %struct.jpeg_decomp_master, ptr %8, i32 0, i32 2
  %10 = load i32, ptr %9, align 8
  %11 = icmp ne i32 %10, 0
  br i1 %11, label %12, label %34

12:                                               ; preds = %1
  %13 = load ptr, ptr %3, align 8
  %14 = getelementptr inbounds %struct.my_decomp_master, ptr %13, i32 0, i32 0
  %15 = getelementptr inbounds %struct.jpeg_decomp_master, ptr %14, i32 0, i32 2
  store i32 0, ptr %15, align 8
  %16 = load ptr, ptr %2, align 8
  %17 = getelementptr inbounds %struct.jpeg_decompress_struct, ptr %16, i32 0, i32 87
  %18 = load ptr, ptr %17, align 8
  %19 = getelementptr inbounds %struct.jpeg_color_quantizer, ptr %18, i32 0, i32 0
  %20 = load ptr, ptr %19, align 8
  %21 = load ptr, ptr %2, align 8
  call void %20(ptr noundef %21, i32 noundef 0)
  %22 = load ptr, ptr %2, align 8
  %23 = getelementptr inbounds %struct.jpeg_decompress_struct, ptr %22, i32 0, i32 80
  %24 = load ptr, ptr %23, align 8
  %25 = getelementptr inbounds %struct.jpeg_d_post_controller, ptr %24, i32 0, i32 0
  %26 = load ptr, ptr %25, align 8
  %27 = load ptr, ptr %2, align 8
  call void %26(ptr noundef %27, i32 noundef 2)
  %28 = load ptr, ptr %2, align 8
  %29 = getelementptr inbounds %struct.jpeg_decompress_struct, ptr %28, i32 0, i32 78
  %30 = load ptr, ptr %29, align 8
  %31 = getelementptr inbounds %struct.jpeg_d_main_controller, ptr %30, i32 0, i32 0
  %32 = load ptr, ptr %31, align 8
  %33 = load ptr, ptr %2, align 8
  call void %32(ptr noundef %33, i32 noundef 2)
  br label %158

34:                                               ; preds = %1
  %35 = load ptr, ptr %2, align 8
  %36 = getelementptr inbounds %struct.jpeg_decompress_struct, ptr %35, i32 0, i32 20
  %37 = load i32, ptr %36, align 4
  %38 = icmp ne i32 %37, 0
  br i1 %38, label %39, label %87

39:                                               ; preds = %34
  %40 = load ptr, ptr %2, align 8
  %41 = getelementptr inbounds %struct.jpeg_decompress_struct, ptr %40, i32 0, i32 33
  %42 = load ptr, ptr %41, align 8
  %43 = icmp eq ptr %42, null
  br i1 %43, label %44, label %87

44:                                               ; preds = %39
  %45 = load ptr, ptr %2, align 8
  %46 = getelementptr inbounds %struct.jpeg_decompress_struct, ptr %45, i32 0, i32 22
  %47 = load i32, ptr %46, align 4
  %48 = icmp ne i32 %47, 0
  br i1 %48, label %49, label %63

49:                                               ; preds = %44
  %50 = load ptr, ptr %2, align 8
  %51 = getelementptr inbounds %struct.jpeg_decompress_struct, ptr %50, i32 0, i32 26
  %52 = load i32, ptr %51, align 4
  %53 = icmp ne i32 %52, 0
  br i1 %53, label %54, label %63

54:                                               ; preds = %49
  %55 = load ptr, ptr %3, align 8
  %56 = getelementptr inbounds %struct.my_decomp_master, ptr %55, i32 0, i32 4
  %57 = load ptr, ptr %56, align 8
  %58 = load ptr, ptr %2, align 8
  %59 = getelementptr inbounds %struct.jpeg_decompress_struct, ptr %58, i32 0, i32 87
  store ptr %57, ptr %59, align 8
  %60 = load ptr, ptr %3, align 8
  %61 = getelementptr inbounds %struct.my_decomp_master, ptr %60, i32 0, i32 0
  %62 = getelementptr inbounds %struct.jpeg_decomp_master, ptr %61, i32 0, i32 2
  store i32 1, ptr %62, align 8
  br label %86

63:                                               ; preds = %49, %44
  %64 = load ptr, ptr %2, align 8
  %65 = getelementptr inbounds %struct.jpeg_decompress_struct, ptr %64, i32 0, i32 24
  %66 = load i32, ptr %65, align 4
  %67 = icmp ne i32 %66, 0
  br i1 %67, label %68, label %74

68:                                               ; preds = %63
  %69 = load ptr, ptr %3, align 8
  %70 = getelementptr inbounds %struct.my_decomp_master, ptr %69, i32 0, i32 3
  %71 = load ptr, ptr %70, align 8
  %72 = load ptr, ptr %2, align 8
  %73 = getelementptr inbounds %struct.jpeg_decompress_struct, ptr %72, i32 0, i32 87
  store ptr %71, ptr %73, align 8
  br label %85

74:                                               ; preds = %63
  %75 = load ptr, ptr %2, align 8
  %76 = getelementptr inbounds %struct.jpeg_decompress_struct, ptr %75, i32 0, i32 0
  %77 = load ptr, ptr %76, align 8
  %78 = getelementptr inbounds %struct.jpeg_error_mgr, ptr %77, i32 0, i32 5
  store i32 46, ptr %78, align 8
  %79 = load ptr, ptr %2, align 8
  %80 = getelementptr inbounds %struct.jpeg_decompress_struct, ptr %79, i32 0, i32 0
  %81 = load ptr, ptr %80, align 8
  %82 = getelementptr inbounds %struct.jpeg_error_mgr, ptr %81, i32 0, i32 0
  %83 = load ptr, ptr %82, align 8
  %84 = load ptr, ptr %2, align 8
  call void %83(ptr noundef %84)
  br label %85

85:                                               ; preds = %74, %68
  br label %86

86:                                               ; preds = %85, %54
  br label %87

87:                                               ; preds = %86, %39, %34
  %88 = load ptr, ptr %2, align 8
  %89 = getelementptr inbounds %struct.jpeg_decompress_struct, ptr %88, i32 0, i32 84
  %90 = load ptr, ptr %89, align 8
  %91 = getelementptr inbounds %struct.jpeg_inverse_dct, ptr %90, i32 0, i32 0
  %92 = load ptr, ptr %91, align 8
  %93 = load ptr, ptr %2, align 8
  call void %92(ptr noundef %93)
  %94 = load ptr, ptr %2, align 8
  %95 = getelementptr inbounds %struct.jpeg_decompress_struct, ptr %94, i32 0, i32 79
  %96 = load ptr, ptr %95, align 8
  %97 = getelementptr inbounds %struct.jpeg_d_coef_controller, ptr %96, i32 0, i32 2
  %98 = load ptr, ptr %97, align 8
  %99 = load ptr, ptr %2, align 8
  call void %98(ptr noundef %99)
  %100 = load ptr, ptr %2, align 8
  %101 = getelementptr inbounds %struct.jpeg_decompress_struct, ptr %100, i32 0, i32 16
  %102 = load i32, ptr %101, align 4
  %103 = icmp ne i32 %102, 0
  br i1 %103, label %157, label %104

104:                                              ; preds = %87
  %105 = load ptr, ptr %3, align 8
  %106 = getelementptr inbounds %struct.my_decomp_master, ptr %105, i32 0, i32 2
  %107 = load i32, ptr %106, align 4
  %108 = icmp ne i32 %107, 0
  br i1 %108, label %116, label %109

109:                                              ; preds = %104
  %110 = load ptr, ptr %2, align 8
  %111 = getelementptr inbounds %struct.jpeg_decompress_struct, ptr %110, i32 0, i32 86
  %112 = load ptr, ptr %111, align 8
  %113 = getelementptr inbounds %struct.jpeg_color_deconverter, ptr %112, i32 0, i32 0
  %114 = load ptr, ptr %113, align 8
  %115 = load ptr, ptr %2, align 8
  call void %114(ptr noundef %115)
  br label %116

116:                                              ; preds = %109, %104
  %117 = load ptr, ptr %2, align 8
  %118 = getelementptr inbounds %struct.jpeg_decompress_struct, ptr %117, i32 0, i32 85
  %119 = load ptr, ptr %118, align 8
  %120 = getelementptr inbounds %struct.jpeg_upsampler, ptr %119, i32 0, i32 0
  %121 = load ptr, ptr %120, align 8
  %122 = load ptr, ptr %2, align 8
  call void %121(ptr noundef %122)
  %123 = load ptr, ptr %2, align 8
  %124 = getelementptr inbounds %struct.jpeg_decompress_struct, ptr %123, i32 0, i32 20
  %125 = load i32, ptr %124, align 4
  %126 = icmp ne i32 %125, 0
  br i1 %126, label %127, label %138

127:                                              ; preds = %116
  %128 = load ptr, ptr %2, align 8
  %129 = getelementptr inbounds %struct.jpeg_decompress_struct, ptr %128, i32 0, i32 87
  %130 = load ptr, ptr %129, align 8
  %131 = getelementptr inbounds %struct.jpeg_color_quantizer, ptr %130, i32 0, i32 0
  %132 = load ptr, ptr %131, align 8
  %133 = load ptr, ptr %2, align 8
  %134 = load ptr, ptr %3, align 8
  %135 = getelementptr inbounds %struct.my_decomp_master, ptr %134, i32 0, i32 0
  %136 = getelementptr inbounds %struct.jpeg_decomp_master, ptr %135, i32 0, i32 2
  %137 = load i32, ptr %136, align 8
  call void %132(ptr noundef %133, i32 noundef %137)
  br label %138

138:                                              ; preds = %127, %116
  %139 = load ptr, ptr %2, align 8
  %140 = getelementptr inbounds %struct.jpeg_decompress_struct, ptr %139, i32 0, i32 80
  %141 = load ptr, ptr %140, align 8
  %142 = getelementptr inbounds %struct.jpeg_d_post_controller, ptr %141, i32 0, i32 0
  %143 = load ptr, ptr %142, align 8
  %144 = load ptr, ptr %2, align 8
  %145 = load ptr, ptr %3, align 8
  %146 = getelementptr inbounds %struct.my_decomp_master, ptr %145, i32 0, i32 0
  %147 = getelementptr inbounds %struct.jpeg_decomp_master, ptr %146, i32 0, i32 2
  %148 = load i32, ptr %147, align 8
  %149 = icmp ne i32 %148, 0
  %150 = select i1 %149, i32 3, i32 0
  call void %143(ptr noundef %144, i32 noundef %150)
  %151 = load ptr, ptr %2, align 8
  %152 = getelementptr inbounds %struct.jpeg_decompress_struct, ptr %151, i32 0, i32 78
  %153 = load ptr, ptr %152, align 8
  %154 = getelementptr inbounds %struct.jpeg_d_main_controller, ptr %153, i32 0, i32 0
  %155 = load ptr, ptr %154, align 8
  %156 = load ptr, ptr %2, align 8
  call void %155(ptr noundef %156, i32 noundef 0)
  br label %157

157:                                              ; preds = %138, %87
  br label %158

158:                                              ; preds = %157, %12
  %159 = load ptr, ptr %2, align 8
  %160 = getelementptr inbounds %struct.jpeg_decompress_struct, ptr %159, i32 0, i32 2
  %161 = load ptr, ptr %160, align 8
  %162 = icmp ne ptr %161, null
  br i1 %162, label %163, label %209

163:                                              ; preds = %158
  %164 = load ptr, ptr %3, align 8
  %165 = getelementptr inbounds %struct.my_decomp_master, ptr %164, i32 0, i32 1
  %166 = load i32, ptr %165, align 8
  %167 = load ptr, ptr %2, align 8
  %168 = getelementptr inbounds %struct.jpeg_decompress_struct, ptr %167, i32 0, i32 2
  %169 = load ptr, ptr %168, align 8
  %170 = getelementptr inbounds %struct.jpeg_progress_mgr, ptr %169, i32 0, i32 3
  store i32 %166, ptr %170, align 8
  %171 = load ptr, ptr %3, align 8
  %172 = getelementptr inbounds %struct.my_decomp_master, ptr %171, i32 0, i32 1
  %173 = load i32, ptr %172, align 8
  %174 = load ptr, ptr %3, align 8
  %175 = getelementptr inbounds %struct.my_decomp_master, ptr %174, i32 0, i32 0
  %176 = getelementptr inbounds %struct.jpeg_decomp_master, ptr %175, i32 0, i32 2
  %177 = load i32, ptr %176, align 8
  %178 = icmp ne i32 %177, 0
  %179 = select i1 %178, i32 2, i32 1
  %180 = add nsw i32 %173, %179
  %181 = load ptr, ptr %2, align 8
  %182 = getelementptr inbounds %struct.jpeg_decompress_struct, ptr %181, i32 0, i32 2
  %183 = load ptr, ptr %182, align 8
  %184 = getelementptr inbounds %struct.jpeg_progress_mgr, ptr %183, i32 0, i32 4
  store i32 %180, ptr %184, align 4
  %185 = load ptr, ptr %2, align 8
  %186 = getelementptr inbounds %struct.jpeg_decompress_struct, ptr %185, i32 0, i32 15
  %187 = load i32, ptr %186, align 8
  %188 = icmp ne i32 %187, 0
  br i1 %188, label %189, label %208

189:                                              ; preds = %163
  %190 = load ptr, ptr %2, align 8
  %191 = getelementptr inbounds %struct.jpeg_decompress_struct, ptr %190, i32 0, i32 81
  %192 = load ptr, ptr %191, align 8
  %193 = getelementptr inbounds %struct.jpeg_input_controller, ptr %192, i32 0, i32 5
  %194 = load i32, ptr %193, align 4
  %195 = icmp ne i32 %194, 0
  br i1 %195, label %208, label %196

196:                                              ; preds = %189
  %197 = load ptr, ptr %2, align 8
  %198 = getelementptr inbounds %struct.jpeg_decompress_struct, ptr %197, i32 0, i32 26
  %199 = load i32, ptr %198, align 4
  %200 = icmp ne i32 %199, 0
  %201 = select i1 %200, i32 2, i32 1
  %202 = load ptr, ptr %2, align 8
  %203 = getelementptr inbounds %struct.jpeg_decompress_struct, ptr %202, i32 0, i32 2
  %204 = load ptr, ptr %203, align 8
  %205 = getelementptr inbounds %struct.jpeg_progress_mgr, ptr %204, i32 0, i32 4
  %206 = load i32, ptr %205, align 4
  %207 = add nsw i32 %206, %201
  store i32 %207, ptr %205, align 4
  br label %208

208:                                              ; preds = %196, %189, %163
  br label %209

209:                                              ; preds = %208, %158
  ret void
}