; Function Attrs: nounwind uwtable
define internal void @prepare_for_output_pass(ptr noundef %0) #0 {
  %2 = getelementptr inbounds i8, ptr %0, i64 544
  %3 = load ptr, ptr %2, align 8
  %4 = getelementptr inbounds i8, ptr %3, i64 16
  %5 = load i32, ptr %4, align 8
  %.not = icmp eq i32 %5, 0
  br i1 %.not, label %13, label %6

6:                                                ; preds = %1
  store i32 0, ptr %4, align 8
  %7 = getelementptr inbounds i8, ptr %0, i64 624
  %8 = load ptr, ptr %7, align 8
  %9 = load ptr, ptr %8, align 8
  tail call void %9(ptr noundef nonnull %0, i32 noundef 0) #4
  %10 = getelementptr inbounds i8, ptr %0, i64 568
  %11 = load ptr, ptr %10, align 8
  %12 = load ptr, ptr %11, align 8
  tail call void %12(ptr noundef nonnull %0, i32 noundef 2) #4
  br label %.sink.split

13:                                               ; preds = %1
  %14 = getelementptr inbounds i8, ptr %0, i64 108
  %15 = load i32, ptr %14, align 4
  %.not51 = icmp eq i32 %15, 0
  br i1 %.not51, label %42, label %16

16:                                               ; preds = %13
  %17 = getelementptr inbounds i8, ptr %0, i64 160
  %18 = load ptr, ptr %17, align 8
  %19 = icmp eq ptr %18, null
  br i1 %19, label %20, label %42

20:                                               ; preds = %16
  %21 = getelementptr inbounds i8, ptr %0, i64 116
  %22 = load i32, ptr %21, align 4
  %.not52 = icmp eq i32 %22, 0
  br i1 %.not52, label %30, label %23

23:                                               ; preds = %20
  %24 = getelementptr inbounds i8, ptr %0, i64 132
  %25 = load i32, ptr %24, align 4
  %.not53 = icmp eq i32 %25, 0
  br i1 %.not53, label %30, label %26

26:                                               ; preds = %23
  %27 = getelementptr inbounds i8, ptr %3, i64 144
  %28 = load ptr, ptr %27, align 8
  %29 = getelementptr inbounds i8, ptr %0, i64 624
  store ptr %28, ptr %29, align 8
  store i32 1, ptr %4, align 8
  br label %42

30:                                               ; preds = %23, %20
  %31 = getelementptr inbounds i8, ptr %0, i64 124
  %32 = load i32, ptr %31, align 4
  %.not54 = icmp eq i32 %32, 0
  br i1 %.not54, label %37, label %33

33:                                               ; preds = %30
  %34 = getelementptr inbounds i8, ptr %3, i64 136
  %35 = load ptr, ptr %34, align 8
  %36 = getelementptr inbounds i8, ptr %0, i64 624
  store ptr %35, ptr %36, align 8
  br label %42

37:                                               ; preds = %30
  %38 = load ptr, ptr %0, align 8
  %39 = getelementptr inbounds i8, ptr %38, i64 40
  store i32 46, ptr %39, align 8
  %40 = load ptr, ptr %0, align 8
  %41 = load ptr, ptr %40, align 8
  tail call void %41(ptr noundef nonnull %0) #4
  br label %42

42:                                               ; preds = %26, %37, %33, %16, %13
  %43 = getelementptr inbounds i8, ptr %0, i64 600
  %44 = load ptr, ptr %43, align 8
  %45 = load ptr, ptr %44, align 8
  tail call void %45(ptr noundef nonnull %0) #4
  %46 = getelementptr inbounds i8, ptr %0, i64 560
  %47 = load ptr, ptr %46, align 8
  %48 = getelementptr inbounds i8, ptr %47, i64 16
  %49 = load ptr, ptr %48, align 8
  tail call void %49(ptr noundef nonnull %0) #4
  %50 = getelementptr inbounds i8, ptr %0, i64 92
  %51 = load i32, ptr %50, align 4
  %.not55 = icmp eq i32 %51, 0
  br i1 %.not55, label %52, label %78

52:                                               ; preds = %42
  %53 = getelementptr inbounds i8, ptr %3, i64 132
  %54 = load i32, ptr %53, align 4
  %.not56 = icmp eq i32 %54, 0
  br i1 %.not56, label %55, label %59

55:                                               ; preds = %52
  %56 = getelementptr inbounds i8, ptr %0, i64 616
  %57 = load ptr, ptr %56, align 8
  %58 = load ptr, ptr %57, align 8
  tail call void %58(ptr noundef nonnull %0) #4
  br label %59

59:                                               ; preds = %55, %52
  %60 = getelementptr inbounds i8, ptr %0, i64 608
  %61 = load ptr, ptr %60, align 8
  %62 = load ptr, ptr %61, align 8
  tail call void %62(ptr noundef nonnull %0) #4
  %63 = load i32, ptr %14, align 4
  %.not57 = icmp eq i32 %63, 0
  br i1 %.not57, label %69, label %64

64:                                               ; preds = %59
  %65 = getelementptr inbounds i8, ptr %0, i64 624
  %66 = load ptr, ptr %65, align 8
  %67 = load ptr, ptr %66, align 8
  %68 = load i32, ptr %4, align 8
  tail call void %67(ptr noundef nonnull %0, i32 noundef %68) #4
  br label %69

69:                                               ; preds = %64, %59
  %70 = getelementptr inbounds i8, ptr %0, i64 568
  %71 = load ptr, ptr %70, align 8
  %72 = load ptr, ptr %71, align 8
  %73 = load i32, ptr %4, align 8
  %.not58 = icmp eq i32 %73, 0
  %74 = select i1 %.not58, i32 0, i32 3
  tail call void %72(ptr noundef nonnull %0, i32 noundef %74) #4
  br label %.sink.split

.sink.split:                                      ; preds = %6, %69
  %.sink = phi i32 [ 0, %69 ], [ 2, %6 ]
  %75 = getelementptr inbounds i8, ptr %0, i64 552
  %76 = load ptr, ptr %75, align 8
  %77 = load ptr, ptr %76, align 8
  tail call void %77(ptr noundef nonnull %0, i32 noundef %.sink) #4
  br label %78

78:                                               ; preds = %.sink.split, %42
  %79 = getelementptr inbounds i8, ptr %0, i64 16
  %80 = load ptr, ptr %79, align 8
  %.not59 = icmp eq ptr %80, null
  br i1 %.not59, label %105, label %81

81:                                               ; preds = %78
  %82 = getelementptr inbounds i8, ptr %3, i64 128
  %83 = load i32, ptr %82, align 8
  %84 = getelementptr inbounds i8, ptr %80, i64 24
  store i32 %83, ptr %84, align 8
  %85 = load i32, ptr %4, align 8
  %.not60 = icmp eq i32 %85, 0
  %86 = select i1 %.not60, i32 1, i32 2
  %87 = add nsw i32 %86, %83
  %88 = load ptr, ptr %79, align 8
  %89 = getelementptr inbounds i8, ptr %88, i64 28
  store i32 %87, ptr %89, align 4
  %90 = getelementptr inbounds i8, ptr %0, i64 88
  %91 = load i32, ptr %90, align 8
  %.not61 = icmp eq i32 %91, 0
  br i1 %.not61, label %105, label %92

92:                                               ; preds = %81
  %93 = getelementptr inbounds i8, ptr %0, i64 576
  %94 = load ptr, ptr %93, align 8
  %95 = getelementptr inbounds i8, ptr %94, i64 36
  %96 = load i32, ptr %95, align 4
  %.not62 = icmp eq i32 %96, 0
  br i1 %.not62, label %97, label %105

97:                                               ; preds = %92
  %98 = getelementptr inbounds i8, ptr %0, i64 132
  %99 = load i32, ptr %98, align 4
  %.not63 = icmp eq i32 %99, 0
  %100 = select i1 %.not63, i32 1, i32 2
  %101 = load ptr, ptr %79, align 8
  %102 = getelementptr inbounds i8, ptr %101, i64 28
  %103 = load i32, ptr %102, align 4
  %104 = add nsw i32 %103, %100
  store i32 %104, ptr %102, align 4
  br label %105

105:                                              ; preds = %81, %92, %97, %78
  ret void
}